
./bomb:     file format elf64-x86-64


Disassembly of section .plt:

00000000004007a0 <getenv@plt-0x10>:
  4007a0:	ff 35 62 18 20 00    	push   QWORD PTR [rip+0x201862]        # 602008 <_GLOBAL_OFFSET_TABLE_+0x8>
  4007a6:	ff 25 64 18 20 00    	jmp    QWORD PTR [rip+0x201864]        # 602010 <_GLOBAL_OFFSET_TABLE_+0x10>
  4007ac:	0f 1f 40 00          	nop    DWORD PTR [rax+0x0]

00000000004007b0 <getenv@plt>:
  4007b0:	ff 25 62 18 20 00    	jmp    QWORD PTR [rip+0x201862]        # 602018 <_GLOBAL_OFFSET_TABLE_+0x18>
  4007b6:	68 00 00 00 00       	push   0x0
  4007bb:	e9 e0 ff ff ff       	jmp    4007a0 <getenv@plt-0x10>

00000000004007c0 <free@plt>:
  4007c0:	ff 25 5a 18 20 00    	jmp    QWORD PTR [rip+0x20185a]        # 602020 <_GLOBAL_OFFSET_TABLE_+0x20>
  4007c6:	68 01 00 00 00       	push   0x1
  4007cb:	e9 d0 ff ff ff       	jmp    4007a0 <getenv@plt-0x10>

00000000004007d0 <_exit@plt>:
  4007d0:	ff 25 52 18 20 00    	jmp    QWORD PTR [rip+0x201852]        # 602028 <_GLOBAL_OFFSET_TABLE_+0x28>
  4007d6:	68 02 00 00 00       	push   0x2
  4007db:	e9 c0 ff ff ff       	jmp    4007a0 <getenv@plt-0x10>

00000000004007e0 <__stack_chk_fail@plt>:
  4007e0:	ff 25 4a 18 20 00    	jmp    QWORD PTR [rip+0x20184a]        # 602030 <_GLOBAL_OFFSET_TABLE_+0x30>
  4007e6:	68 03 00 00 00       	push   0x3
  4007eb:	e9 b0 ff ff ff       	jmp    4007a0 <getenv@plt-0x10>

00000000004007f0 <strchr@plt>:
  4007f0:	ff 25 42 18 20 00    	jmp    QWORD PTR [rip+0x201842]        # 602038 <_GLOBAL_OFFSET_TABLE_+0x38>
  4007f6:	68 04 00 00 00       	push   0x4
  4007fb:	e9 a0 ff ff ff       	jmp    4007a0 <getenv@plt-0x10>

0000000000400800 <strncat@plt>:
  400800:	ff 25 3a 18 20 00    	jmp    QWORD PTR [rip+0x20183a]        # 602040 <_GLOBAL_OFFSET_TABLE_+0x40>
  400806:	68 05 00 00 00       	push   0x5
  40080b:	e9 90 ff ff ff       	jmp    4007a0 <getenv@plt-0x10>

0000000000400810 <fgets@plt>:
  400810:	ff 25 32 18 20 00    	jmp    QWORD PTR [rip+0x201832]        # 602048 <_GLOBAL_OFFSET_TABLE_+0x48>
  400816:	68 06 00 00 00       	push   0x6
  40081b:	e9 80 ff ff ff       	jmp    4007a0 <getenv@plt-0x10>

0000000000400820 <strcmp@plt>:
  400820:	ff 25 2a 18 20 00    	jmp    QWORD PTR [rip+0x20182a]        # 602050 <_GLOBAL_OFFSET_TABLE_+0x50>
  400826:	68 07 00 00 00       	push   0x7
  40082b:	e9 70 ff ff ff       	jmp    4007a0 <getenv@plt-0x10>

0000000000400830 <syscall@plt>:
  400830:	ff 25 22 18 20 00    	jmp    QWORD PTR [rip+0x201822]        # 602058 <_GLOBAL_OFFSET_TABLE_+0x58>
  400836:	68 08 00 00 00       	push   0x8
  40083b:	e9 60 ff ff ff       	jmp    4007a0 <getenv@plt-0x10>

0000000000400840 <memalign@plt>:
  400840:	ff 25 1a 18 20 00    	jmp    QWORD PTR [rip+0x20181a]        # 602060 <_GLOBAL_OFFSET_TABLE_+0x60>
  400846:	68 09 00 00 00       	push   0x9
  40084b:	e9 50 ff ff ff       	jmp    4007a0 <getenv@plt-0x10>

0000000000400850 <malloc@plt>:
  400850:	ff 25 12 18 20 00    	jmp    QWORD PTR [rip+0x201812]        # 602068 <_GLOBAL_OFFSET_TABLE_+0x68>
  400856:	68 0a 00 00 00       	push   0xa
  40085b:	e9 40 ff ff ff       	jmp    4007a0 <getenv@plt-0x10>

0000000000400860 <__isoc99_sscanf@plt>:
  400860:	ff 25 0a 18 20 00    	jmp    QWORD PTR [rip+0x20180a]        # 602070 <_GLOBAL_OFFSET_TABLE_+0x70>
  400866:	68 0b 00 00 00       	push   0xb
  40086b:	e9 30 ff ff ff       	jmp    4007a0 <getenv@plt-0x10>

0000000000400870 <ptrace@plt>:
  400870:	ff 25 02 18 20 00    	jmp    QWORD PTR [rip+0x201802]        # 602078 <_GLOBAL_OFFSET_TABLE_+0x78>
  400876:	68 0c 00 00 00       	push   0xc
  40087b:	e9 20 ff ff ff       	jmp    4007a0 <getenv@plt-0x10>

0000000000400880 <__printf_chk@plt>:
  400880:	ff 25 fa 17 20 00    	jmp    QWORD PTR [rip+0x2017fa]        # 602080 <_GLOBAL_OFFSET_TABLE_+0x80>
  400886:	68 0d 00 00 00       	push   0xd
  40088b:	e9 10 ff ff ff       	jmp    4007a0 <getenv@plt-0x10>

0000000000400890 <mprotect@plt>:
  400890:	ff 25 f2 17 20 00    	jmp    QWORD PTR [rip+0x2017f2]        # 602088 <_GLOBAL_OFFSET_TABLE_+0x88>
  400896:	68 0e 00 00 00       	push   0xe
  40089b:	e9 00 ff ff ff       	jmp    4007a0 <getenv@plt-0x10>

00000000004008a0 <exit@plt>:
  4008a0:	ff 25 ea 17 20 00    	jmp    QWORD PTR [rip+0x2017ea]        # 602090 <_GLOBAL_OFFSET_TABLE_+0x90>
  4008a6:	68 0f 00 00 00       	push   0xf
  4008ab:	e9 f0 fe ff ff       	jmp    4007a0 <getenv@plt-0x10>

00000000004008b0 <__fprintf_chk@plt>:
  4008b0:	ff 25 e2 17 20 00    	jmp    QWORD PTR [rip+0x2017e2]        # 602098 <_GLOBAL_OFFSET_TABLE_+0x98>
  4008b6:	68 10 00 00 00       	push   0x10
  4008bb:	e9 e0 fe ff ff       	jmp    4007a0 <getenv@plt-0x10>

Disassembly of section .text:

00000000004008c0 <stage_defused>:
  4008c0:	48 81 ec 98 00 00 00 	sub    rsp,0x98
  4008c7:	64 48 8b 04 25 28 00 	mov    rax,QWORD PTR fs:0x28
  4008ce:	00 00 
  4008d0:	48 89 84 24 88 00 00 	mov    QWORD PTR [rsp+0x88],rax
  4008d7:	00 
  4008d8:	31 c0                	xor    eax,eax
  4008da:	be a8 13 40 00       	mov    esi,0x4013a8
  4008df:	bf 01 00 00 00       	mov    edi,0x1
  4008e4:	e8 97 ff ff ff       	call   400880 <__printf_chk@plt>
  4008e9:	48 8b 15 d0 17 20 00 	mov    rdx,QWORD PTR [rip+0x2017d0]        # 6020c0 <_edata>
  4008f0:	be 80 00 00 00       	mov    esi,0x80
  4008f5:	48 89 e7             	mov    rdi,rsp
  4008f8:	e8 13 ff ff ff       	call   400810 <fgets@plt>
  4008fd:	be 0a 00 00 00       	mov    esi,0xa
  400902:	48 89 e7             	mov    rdi,rsp
  400905:	e8 e6 fe ff ff       	call   4007f0 <strchr@plt>
  40090a:	c6 00 00             	mov    BYTE PTR [rax],0x0
  40090d:	48 89 e7             	mov    rdi,rsp
  400910:	e8 76 03 00 00       	call   400c8b <stage_1>
  400915:	ba 00 00 00 00       	mov    edx,0x0
  40091a:	84 c0                	test   al,al
  40091c:	0f 84 14 02 00 00    	je     400b36 <stage_defused+0x276>
  400922:	be b2 13 40 00       	mov    esi,0x4013b2
  400927:	bf 01 00 00 00       	mov    edi,0x1
  40092c:	b8 00 00 00 00       	mov    eax,0x0
  400931:	e8 4a ff ff ff       	call   400880 <__printf_chk@plt>
  400936:	48 8b 15 83 17 20 00 	mov    rdx,QWORD PTR [rip+0x201783]        # 6020c0 <_edata>
  40093d:	be 80 00 00 00       	mov    esi,0x80
  400942:	48 89 e7             	mov    rdi,rsp
  400945:	e8 c6 fe ff ff       	call   400810 <fgets@plt>
  40094a:	be 0a 00 00 00       	mov    esi,0xa
  40094f:	48 89 e7             	mov    rdi,rsp
  400952:	e8 99 fe ff ff       	call   4007f0 <strchr@plt>
  400957:	c6 00 00             	mov    BYTE PTR [rax],0x0
  40095a:	48 89 e7             	mov    rdi,rsp
  40095d:	e8 44 03 00 00       	call   400ca6 <stage_2>
  400962:	ba 01 00 00 00       	mov    edx,0x1
  400967:	84 c0                	test   al,al
  400969:	0f 84 c7 01 00 00    	je     400b36 <stage_defused+0x276>
  40096f:	be bc 13 40 00       	mov    esi,0x4013bc
  400974:	bf 01 00 00 00       	mov    edi,0x1
  400979:	b8 00 00 00 00       	mov    eax,0x0
  40097e:	e8 fd fe ff ff       	call   400880 <__printf_chk@plt>
  400983:	48 8b 15 36 17 20 00 	mov    rdx,QWORD PTR [rip+0x201736]        # 6020c0 <_edata>
  40098a:	be 80 00 00 00       	mov    esi,0x80
  40098f:	48 89 e7             	mov    rdi,rsp
  400992:	e8 79 fe ff ff       	call   400810 <fgets@plt>
  400997:	be 0a 00 00 00       	mov    esi,0xa
  40099c:	48 89 e7             	mov    rdi,rsp
  40099f:	e8 4c fe ff ff       	call   4007f0 <strchr@plt>
  4009a4:	c6 00 00             	mov    BYTE PTR [rax],0x0
  4009a7:	48 89 e7             	mov    rdi,rsp
  4009aa:	e8 1e 03 00 00       	call   400ccd <stage_3>
  4009af:	ba 02 00 00 00       	mov    edx,0x2
  4009b4:	84 c0                	test   al,al
  4009b6:	0f 84 7a 01 00 00    	je     400b36 <stage_defused+0x276>
  4009bc:	be c6 13 40 00       	mov    esi,0x4013c6
  4009c1:	bf 01 00 00 00       	mov    edi,0x1
  4009c6:	b8 00 00 00 00       	mov    eax,0x0
  4009cb:	e8 b0 fe ff ff       	call   400880 <__printf_chk@plt>
  4009d0:	48 8b 15 e9 16 20 00 	mov    rdx,QWORD PTR [rip+0x2016e9]        # 6020c0 <_edata>
  4009d7:	be 80 00 00 00       	mov    esi,0x80
  4009dc:	48 89 e7             	mov    rdi,rsp
  4009df:	e8 2c fe ff ff       	call   400810 <fgets@plt>
  4009e4:	be 0a 00 00 00       	mov    esi,0xa
  4009e9:	48 89 e7             	mov    rdi,rsp
  4009ec:	e8 ff fd ff ff       	call   4007f0 <strchr@plt>
  4009f1:	c6 00 00             	mov    BYTE PTR [rax],0x0
  4009f4:	48 89 e7             	mov    rdi,rsp
  4009f7:	e8 69 03 00 00       	call   400d65 <stage_4>
  4009fc:	ba 03 00 00 00       	mov    edx,0x3
  400a01:	84 c0                	test   al,al
  400a03:	0f 84 2d 01 00 00    	je     400b36 <stage_defused+0x276>
  400a09:	be d0 13 40 00       	mov    esi,0x4013d0
  400a0e:	bf 01 00 00 00       	mov    edi,0x1
  400a13:	b8 00 00 00 00       	mov    eax,0x0
  400a18:	e8 63 fe ff ff       	call   400880 <__printf_chk@plt>
  400a1d:	48 8b 15 9c 16 20 00 	mov    rdx,QWORD PTR [rip+0x20169c]        # 6020c0 <_edata>
  400a24:	be 80 00 00 00       	mov    esi,0x80
  400a29:	48 89 e7             	mov    rdi,rsp
  400a2c:	e8 df fd ff ff       	call   400810 <fgets@plt>
  400a31:	be 0a 00 00 00       	mov    esi,0xa
  400a36:	48 89 e7             	mov    rdi,rsp
  400a39:	e8 b2 fd ff ff       	call   4007f0 <strchr@plt>
  400a3e:	c6 00 00             	mov    BYTE PTR [rax],0x0
  400a41:	48 89 e7             	mov    rdi,rsp
  400a44:	e8 f7 03 00 00       	call   400e40 <stage_5>
  400a49:	ba 04 00 00 00       	mov    edx,0x4
  400a4e:	84 c0                	test   al,al
  400a50:	0f 84 e0 00 00 00    	je     400b36 <stage_defused+0x276>
  400a56:	be da 13 40 00       	mov    esi,0x4013da
  400a5b:	bf 01 00 00 00       	mov    edi,0x1
  400a60:	b8 00 00 00 00       	mov    eax,0x0
  400a65:	e8 16 fe ff ff       	call   400880 <__printf_chk@plt>
  400a6a:	48 8b 15 4f 16 20 00 	mov    rdx,QWORD PTR [rip+0x20164f]        # 6020c0 <_edata>
  400a71:	be 80 00 00 00       	mov    esi,0x80
  400a76:	48 89 e7             	mov    rdi,rsp
  400a79:	e8 92 fd ff ff       	call   400810 <fgets@plt>
  400a7e:	be 0a 00 00 00       	mov    esi,0xa
  400a83:	48 89 e7             	mov    rdi,rsp
  400a86:	e8 65 fd ff ff       	call   4007f0 <strchr@plt>
  400a8b:	c6 00 00             	mov    BYTE PTR [rax],0x0
  400a8e:	48 89 e7             	mov    rdi,rsp
  400a91:	e8 9d 04 00 00       	call   400f33 <stage_6>
  400a96:	ba 05 00 00 00       	mov    edx,0x5
  400a9b:	84 c0                	test   al,al
  400a9d:	0f 84 93 00 00 00    	je     400b36 <stage_defused+0x276>
  400aa3:	be e4 13 40 00       	mov    esi,0x4013e4
  400aa8:	bf 01 00 00 00       	mov    edi,0x1
  400aad:	b8 00 00 00 00       	mov    eax,0x0
  400ab2:	e8 c9 fd ff ff       	call   400880 <__printf_chk@plt>
  400ab7:	48 8b 15 02 16 20 00 	mov    rdx,QWORD PTR [rip+0x201602]        # 6020c0 <_edata>
  400abe:	be 80 00 00 00       	mov    esi,0x80
  400ac3:	48 89 e7             	mov    rdi,rsp
  400ac6:	e8 45 fd ff ff       	call   400810 <fgets@plt>
  400acb:	be 0a 00 00 00       	mov    esi,0xa
  400ad0:	48 89 e7             	mov    rdi,rsp
  400ad3:	e8 18 fd ff ff       	call   4007f0 <strchr@plt>
  400ad8:	c6 00 00             	mov    BYTE PTR [rax],0x0
  400adb:	48 89 e7             	mov    rdi,rsp
  400ade:	e8 c6 04 00 00       	call   400fa9 <stage_7>
  400ae3:	ba 06 00 00 00       	mov    edx,0x6
  400ae8:	84 c0                	test   al,al
  400aea:	74 4a                	je     400b36 <stage_defused+0x276>
  400aec:	be ee 13 40 00       	mov    esi,0x4013ee
  400af1:	bf 01 00 00 00       	mov    edi,0x1
  400af6:	b8 00 00 00 00       	mov    eax,0x0
  400afb:	e8 80 fd ff ff       	call   400880 <__printf_chk@plt>
  400b00:	48 8b 15 b9 15 20 00 	mov    rdx,QWORD PTR [rip+0x2015b9]        # 6020c0 <_edata>
  400b07:	be 80 00 00 00       	mov    esi,0x80
  400b0c:	48 89 e7             	mov    rdi,rsp
  400b0f:	e8 fc fc ff ff       	call   400810 <fgets@plt>
  400b14:	be 0a 00 00 00       	mov    esi,0xa
  400b19:	48 89 e7             	mov    rdi,rsp
  400b1c:	e8 cf fc ff ff       	call   4007f0 <strchr@plt>
  400b21:	c6 00 00             	mov    BYTE PTR [rax],0x0
  400b24:	48 89 e7             	mov    rdi,rsp
  400b27:	e8 78 07 00 00       	call   4012a4 <stage_8>
  400b2c:	3c 01                	cmp    al,0x1
  400b2e:	19 d2                	sbb    edx,edx
  400b30:	83 e2 fe             	and    edx,0xfffffffe
  400b33:	83 c2 09             	add    edx,0x9
  400b36:	89 d0                	mov    eax,edx
  400b38:	48 8b 8c 24 88 00 00 	mov    rcx,QWORD PTR [rsp+0x88]
  400b3f:	00 
  400b40:	64 48 33 0c 25 28 00 	xor    rcx,QWORD PTR fs:0x28
  400b47:	00 00 
  400b49:	74 05                	je     400b50 <stage_defused+0x290>
  400b4b:	e8 90 fc ff ff       	call   4007e0 <__stack_chk_fail@plt>
  400b50:	48 81 c4 98 00 00 00 	add    rsp,0x98
  400b57:	c3                   	ret    

0000000000400b58 <main>:
  400b58:	53                   	push   rbx
  400b59:	e8 62 fd ff ff       	call   4008c0 <stage_defused>
  400b5e:	83 f8 07             	cmp    eax,0x7
  400b61:	7f 66                	jg     400bc9 <main+0x71>
  400b63:	89 c3                	mov    ebx,eax
  400b65:	be f8 13 40 00       	mov    esi,0x4013f8
  400b6a:	bf 01 00 00 00       	mov    edi,0x1
  400b6f:	b8 00 00 00 00       	mov    eax,0x0
  400b74:	e8 07 fd ff ff       	call   400880 <__printf_chk@plt>
  400b79:	be ff 13 40 00       	mov    esi,0x4013ff
  400b7e:	bf 01 00 00 00       	mov    edi,0x1
  400b83:	b8 00 00 00 00       	mov    eax,0x0
  400b88:	e8 f3 fc ff ff       	call   400880 <__printf_chk@plt>
  400b8d:	83 fb 01             	cmp    ebx,0x1
  400b90:	b9 00 00 00 00       	mov    ecx,0x0
  400b95:	b8 73 00 00 00       	mov    eax,0x73
  400b9a:	0f 45 c8             	cmovne ecx,eax
  400b9d:	89 da                	mov    edx,ebx
  400b9f:	be 40 14 40 00       	mov    esi,0x401440
  400ba4:	bf 01 00 00 00       	mov    edi,0x1
  400ba9:	b8 00 00 00 00       	mov    eax,0x0
  400bae:	e8 cd fc ff ff       	call   400880 <__printf_chk@plt>
  400bb3:	be 0e 14 40 00       	mov    esi,0x40140e
  400bb8:	bf 01 00 00 00       	mov    edi,0x1
  400bbd:	b8 00 00 00 00       	mov    eax,0x0
  400bc2:	e8 b9 fc ff ff       	call   400880 <__printf_chk@plt>
  400bc7:	eb 28                	jmp    400bf1 <main+0x99>
  400bc9:	be 20 14 40 00       	mov    esi,0x401420
  400bce:	bf 01 00 00 00       	mov    edi,0x1
  400bd3:	b8 00 00 00 00       	mov    eax,0x0
  400bd8:	e8 a3 fc ff ff       	call   400880 <__printf_chk@plt>
  400bdd:	be 30 14 40 00       	mov    esi,0x401430
  400be2:	bf 01 00 00 00       	mov    edi,0x1
  400be7:	b8 00 00 00 00       	mov    eax,0x0
  400bec:	e8 8f fc ff ff       	call   400880 <__printf_chk@plt>
  400bf1:	b8 00 00 00 00       	mov    eax,0x0
  400bf6:	5b                   	pop    rbx
  400bf7:	c3                   	ret    

0000000000400bf8 <___>:
  400bf8:	89 f8                	mov    eax,edi
  400bfa:	09 f0                	or     eax,esi
  400bfc:	75 0b                	jne    400c09 <___+0x11>
  400bfe:	48 8b 05 eb 14 20 00 	mov    rax,QWORD PTR [rip+0x2014eb]        # 6020f0 <stderr@@GLIBC_2.2.5+0x10>
  400c05:	0f be 00             	movsx  eax,BYTE PTR [rax]
  400c08:	c3                   	ret    
  400c09:	55                   	push   rbp
  400c0a:	53                   	push   rbx
  400c0b:	48 83 ec 08          	sub    rsp,0x8
  400c0f:	89 f5                	mov    ebp,esi
  400c11:	89 fb                	mov    ebx,edi
  400c13:	85 ff                	test   edi,edi
  400c15:	7f 2e                	jg     400c45 <___+0x4d>
  400c17:	8d 76 ff             	lea    esi,[rsi-0x1]
  400c1a:	89 ef                	mov    edi,ebp
  400c1c:	e8 d7 ff ff ff       	call   400bf8 <___>
  400c21:	48 8b 0d c0 14 20 00 	mov    rcx,QWORD PTR [rip+0x2014c0]        # 6020e8 <stderr@@GLIBC_2.2.5+0x8>
  400c28:	48 8d 51 ff          	lea    rdx,[rcx-0x1]
  400c2c:	48 63 f5             	movsxd rsi,ebp
  400c2f:	48 39 f2             	cmp    rdx,rsi
  400c32:	48 0f 47 d6          	cmova  rdx,rsi
  400c36:	48 8b 0d b3 14 20 00 	mov    rcx,QWORD PTR [rip+0x2014b3]        # 6020f0 <stderr@@GLIBC_2.2.5+0x10>
  400c3d:	0f be 14 11          	movsx  edx,BYTE PTR [rcx+rdx*1]
  400c41:	01 d0                	add    eax,edx
  400c43:	eb 3f                	jmp    400c84 <___+0x8c>
  400c45:	85 f6                	test   esi,esi
  400c47:	7f 30                	jg     400c79 <___+0x81>
  400c49:	8d 7f ff             	lea    edi,[rdi-0x1]
  400c4c:	89 de                	mov    esi,ebx
  400c4e:	e8 a5 ff ff ff       	call   400bf8 <___>
  400c53:	48 8b 0d 8e 14 20 00 	mov    rcx,QWORD PTR [rip+0x20148e]        # 6020e8 <stderr@@GLIBC_2.2.5+0x8>
  400c5a:	48 8d 51 ff          	lea    rdx,[rcx-0x1]
  400c5e:	48 63 fb             	movsxd rdi,ebx
  400c61:	48 39 fa             	cmp    rdx,rdi
  400c64:	48 0f 46 fa          	cmovbe rdi,rdx
  400c68:	48 8b 15 81 14 20 00 	mov    rdx,QWORD PTR [rip+0x201481]        # 6020f0 <stderr@@GLIBC_2.2.5+0x10>
  400c6f:	0f be 14 3a          	movsx  edx,BYTE PTR [rdx+rdi*1]
  400c73:	29 c2                	sub    edx,eax
  400c75:	89 d0                	mov    eax,edx
  400c77:	eb 0b                	jmp    400c84 <___+0x8c>
  400c79:	8d 77 ff             	lea    esi,[rdi-0x1]
  400c7c:	8d 7d ff             	lea    edi,[rbp-0x1]
  400c7f:	e8 74 ff ff ff       	call   400bf8 <___>
  400c84:	48 83 c4 08          	add    rsp,0x8
  400c88:	5b                   	pop    rbx
  400c89:	5d                   	pop    rbp
  400c8a:	c3                   	ret    

0000000000400c8b <stage_1>:
  400c8b:	48 89 fe             	mov    rsi,rdi
  400c8e:	bf 78 14 40 00       	mov    edi,0x401478
  400c93:	b9 0a 00 00 00       	mov    ecx,0xa
  400c98:	f3 a6                	repz cmps BYTE PTR ds:[rsi],BYTE PTR es:[rdi]
  400c9a:	0f 97 c2             	seta   dl
  400c9d:	0f 92 c0             	setb   al
  400ca0:	38 c2                	cmp    dl,al
  400ca2:	0f 94 c0             	sete   al
  400ca5:	c3                   	ret    

0000000000400ca6 <stage_2>:
  400ca6:	53                   	push   rbx
  400ca7:	48 89 fb             	mov    rbx,rdi
  400caa:	bf 82 14 40 00       	mov    edi,0x401482
  400caf:	e8 fc fa ff ff       	call   4007b0 <getenv@plt>
  400cb4:	48 89 05 35 14 20 00 	mov    QWORD PTR [rip+0x201435],rax        # 6020f0 <stderr@@GLIBC_2.2.5+0x10>
  400cbb:	48 89 c6             	mov    rsi,rax
  400cbe:	48 89 df             	mov    rdi,rbx
  400cc1:	e8 5a fb ff ff       	call   400820 <strcmp@plt>
  400cc6:	85 c0                	test   eax,eax
  400cc8:	0f 94 c0             	sete   al
  400ccb:	5b                   	pop    rbx
  400ccc:	c3                   	ret    

0000000000400ccd <stage_3>:
  400ccd:	55                   	push   rbp
  400cce:	53                   	push   rbx
  400ccf:	48 83 ec 18          	sub    rsp,0x18
  400cd3:	48 89 fd             	mov    rbp,rdi
  400cd6:	64 48 8b 04 25 28 00 	mov    rax,QWORD PTR fs:0x28
  400cdd:	00 00 
  400cdf:	48 89 44 24 08       	mov    QWORD PTR [rsp+0x8],rax
  400ce4:	31 c0                	xor    eax,eax
  400ce6:	ba 80 00 00 00       	mov    edx,0x80
  400ceb:	48 8b 35 fe 13 20 00 	mov    rsi,QWORD PTR [rip+0x2013fe]        # 6020f0 <stderr@@GLIBC_2.2.5+0x10>
  400cf2:	e8 09 fb ff ff       	call   400800 <strncat@plt>
  400cf7:	b8 00 00 00 00       	mov    eax,0x0
  400cfc:	48 c7 c1 ff ff ff ff 	mov    rcx,0xffffffffffffffff
  400d03:	48 89 ef             	mov    rdi,rbp
  400d06:	f2 ae                	repnz scas al,BYTE PTR es:[rdi]
  400d08:	48 f7 d1             	not    rcx
  400d0b:	48 8d 59 ff          	lea    rbx,[rcx-0x1]
  400d0f:	c7 44 24 04 00 00 00 	mov    DWORD PTR [rsp+0x4],0x0
  400d16:	00 
  400d17:	48 8d 54 24 04       	lea    rdx,[rsp+0x4]
  400d1c:	be 93 14 40 00       	mov    esi,0x401493
  400d21:	48 89 ef             	mov    rdi,rbp
  400d24:	e8 37 fb ff ff       	call   400860 <__isoc99_sscanf@plt>
  400d29:	8b 44 24 04          	mov    eax,DWORD PTR [rsp+0x4]
  400d2d:	ba 00 00 00 00       	mov    edx,0x0
  400d32:	48 f7 f3             	div    rbx
  400d35:	c1 e8 02             	shr    eax,0x2
  400d38:	b9 ab aa aa aa       	mov    ecx,0xaaaaaaab
  400d3d:	f7 e1                	mul    ecx
  400d3f:	d1 ea                	shr    edx,1
  400d41:	89 d2                	mov    edx,edx
  400d43:	48 39 d3             	cmp    rbx,rdx
  400d46:	0f 92 c0             	setb   al
  400d49:	48 8b 74 24 08       	mov    rsi,QWORD PTR [rsp+0x8]
  400d4e:	64 48 33 34 25 28 00 	xor    rsi,QWORD PTR fs:0x28
  400d55:	00 00 
  400d57:	74 05                	je     400d5e <stage_3+0x91>
  400d59:	e8 82 fa ff ff       	call   4007e0 <__stack_chk_fail@plt>
  400d5e:	48 83 c4 18          	add    rsp,0x18
  400d62:	5b                   	pop    rbx
  400d63:	5d                   	pop    rbp
  400d64:	c3                   	ret    

0000000000400d65 <stage_4>:
  400d65:	53                   	push   rbx
  400d66:	48 83 ec 20          	sub    rsp,0x20
  400d6a:	64 48 8b 04 25 28 00 	mov    rax,QWORD PTR fs:0x28
  400d71:	00 00 
  400d73:	48 89 44 24 18       	mov    QWORD PTR [rsp+0x18],rax
  400d78:	31 c0                	xor    eax,eax
  400d7a:	48 8b 05 6f 13 20 00 	mov    rax,QWORD PTR [rip+0x20136f]        # 6020f0 <stderr@@GLIBC_2.2.5+0x10>
  400d81:	0f b6 18             	movzx  ebx,BYTE PTR [rax]
  400d84:	48 8d 4c 24 04       	lea    rcx,[rsp+0x4]
  400d89:	48 83 ec 08          	sub    rsp,0x8
  400d8d:	48 8d 44 24 18       	lea    rax,[rsp+0x18]
  400d92:	50                   	push   rax
  400d93:	4c 8d 4c 24 1c       	lea    r9,[rsp+0x1c]
  400d98:	4c 8d 44 24 18       	lea    r8,[rsp+0x18]
  400d9d:	48 8d 54 24 10       	lea    rdx,[rsp+0x10]
  400da2:	be 87 14 40 00       	mov    esi,0x401487
  400da7:	b8 00 00 00 00       	mov    eax,0x0
  400dac:	e8 af fa ff ff       	call   400860 <__isoc99_sscanf@plt>
  400db1:	48 83 c4 10          	add    rsp,0x10
  400db5:	ba 00 00 00 00       	mov    edx,0x0
  400dba:	83 f8 05             	cmp    eax,0x5
  400dbd:	75 56                	jne    400e15 <stage_4+0xb0>
  400dbf:	0f be d3             	movsx  edx,bl
  400dc2:	8b 04 24             	mov    eax,DWORD PTR [rsp]
  400dc5:	39 c2                	cmp    edx,eax
  400dc7:	72 60                	jb     400e29 <stage_4+0xc4>
  400dc9:	ba 00 00 00 00       	mov    edx,0x0
  400dce:	eb 45                	jmp    400e15 <stage_4+0xb0>
  400dd0:	8b 48 04             	mov    ecx,DWORD PTR [rax+0x4]
  400dd3:	39 d1                	cmp    ecx,edx
  400dd5:	76 39                	jbe    400e10 <stage_4+0xab>
  400dd7:	01 ca                	add    edx,ecx
  400dd9:	48 83 c0 04          	add    rax,0x4
  400ddd:	48 39 c6             	cmp    rsi,rax
  400de0:	75 ee                	jne    400dd0 <stage_4+0x6b>
  400de2:	48 8b 3d 07 13 20 00 	mov    rdi,QWORD PTR [rip+0x201307]        # 6020f0 <stderr@@GLIBC_2.2.5+0x10>
  400de9:	b8 00 00 00 00       	mov    eax,0x0
  400dee:	48 c7 c1 ff ff ff ff 	mov    rcx,0xffffffffffffffff
  400df5:	f2 ae                	repnz scas al,BYTE PTR es:[rdi]
  400df7:	48 f7 d1             	not    rcx
  400dfa:	48 83 e9 01          	sub    rcx,0x1
  400dfe:	89 d0                	mov    eax,edx
  400e00:	ba 00 00 00 00       	mov    edx,0x0
  400e05:	48 f7 f1             	div    rcx
  400e08:	48 85 d2             	test   rdx,rdx
  400e0b:	0f 94 c2             	sete   dl
  400e0e:	eb 05                	jmp    400e15 <stage_4+0xb0>
  400e10:	ba 00 00 00 00       	mov    edx,0x0
  400e15:	89 d0                	mov    eax,edx
  400e17:	48 8b 5c 24 18       	mov    rbx,QWORD PTR [rsp+0x18]
  400e1c:	64 48 33 1c 25 28 00 	xor    rbx,QWORD PTR fs:0x28
  400e23:	00 00 
  400e25:	74 13                	je     400e3a <stage_4+0xd5>
  400e27:	eb 0c                	jmp    400e35 <stage_4+0xd0>
  400e29:	01 c2                	add    edx,eax
  400e2b:	48 89 e0             	mov    rax,rsp
  400e2e:	48 8d 74 24 10       	lea    rsi,[rsp+0x10]
  400e33:	eb 9b                	jmp    400dd0 <stage_4+0x6b>
  400e35:	e8 a6 f9 ff ff       	call   4007e0 <__stack_chk_fail@plt>
  400e3a:	48 83 c4 20          	add    rsp,0x20
  400e3e:	5b                   	pop    rbx
  400e3f:	c3                   	ret    

0000000000400e40 <stage_5>:
  400e40:	48 83 ec 18          	sub    rsp,0x18
  400e44:	64 48 8b 04 25 28 00 	mov    rax,QWORD PTR fs:0x28
  400e4b:	00 00 
  400e4d:	48 89 44 24 08       	mov    QWORD PTR [rsp+0x8],rax
  400e52:	31 c0                	xor    eax,eax
  400e54:	4c 8d 44 24 03       	lea    r8,[rsp+0x3]
  400e59:	48 8d 4c 24 04       	lea    rcx,[rsp+0x4]
  400e5e:	48 8d 54 24 02       	lea    rdx,[rsp+0x2]
  400e63:	be 96 14 40 00       	mov    esi,0x401496
  400e68:	e8 f3 f9 ff ff       	call   400860 <__isoc99_sscanf@plt>
  400e6d:	ba 00 00 00 00       	mov    edx,0x0
  400e72:	83 f8 03             	cmp    eax,0x3
  400e75:	0f 85 9c 00 00 00    	jne    400f17 <stage_5+0xd7>
  400e7b:	48 8b 15 6e 12 20 00 	mov    rdx,QWORD PTR [rip+0x20126e]        # 6020f0 <stderr@@GLIBC_2.2.5+0x10>
  400e82:	b8 00 00 00 00       	mov    eax,0x0
  400e87:	48 c7 c1 ff ff ff ff 	mov    rcx,0xffffffffffffffff
  400e8e:	48 89 d7             	mov    rdi,rdx
  400e91:	f2 ae                	repnz scas al,BYTE PTR es:[rdi]
  400e93:	48 f7 d1             	not    rcx
  400e96:	48 83 e9 01          	sub    rcx,0x1
  400e9a:	74 73                	je     400f0f <stage_5+0xcf>
  400e9c:	44 0f be 44 24 02    	movsx  r8d,BYTE PTR [rsp+0x2]
  400ea2:	0f be 74 24 03       	movsx  esi,BYTE PTR [rsp+0x3]
  400ea7:	48 89 d0             	mov    rax,rdx
  400eaa:	48 8d 3c 0a          	lea    rdi,[rdx+rcx*1]
  400eae:	49 89 c1             	mov    r9,rax
  400eb1:	0f b6 10             	movzx  edx,BYTE PTR [rax]
  400eb4:	8d 4a 9f             	lea    ecx,[rdx-0x61]
  400eb7:	80 f9 19             	cmp    cl,0x19
  400eba:	77 43                	ja     400eff <stage_5+0xbf>
  400ebc:	0f b6 c9             	movzx  ecx,cl
  400ebf:	ff 24 cd a8 14 40 00 	jmp    QWORD PTR [rcx*8+0x4014a8]
  400ec6:	0f be d2             	movsx  edx,dl
  400ec9:	44 01 c2             	add    edx,r8d
  400ecc:	29 54 24 04          	sub    DWORD PTR [rsp+0x4],edx
  400ed0:	eb 34                	jmp    400f06 <stage_5+0xc6>
  400ed2:	0f be d2             	movsx  edx,dl
  400ed5:	29 54 24 04          	sub    DWORD PTR [rsp+0x4],edx
  400ed9:	41 0f be 11          	movsx  edx,BYTE PTR [r9]
  400edd:	29 54 24 04          	sub    DWORD PTR [rsp+0x4],edx
  400ee1:	eb 23                	jmp    400f06 <stage_5+0xc6>
  400ee3:	0f be d2             	movsx  edx,dl
  400ee6:	29 f2                	sub    edx,esi
  400ee8:	29 54 24 04          	sub    DWORD PTR [rsp+0x4],edx
  400eec:	eb 18                	jmp    400f06 <stage_5+0xc6>
  400eee:	0f be d2             	movsx  edx,dl
  400ef1:	01 f2                	add    edx,esi
  400ef3:	29 54 24 04          	sub    DWORD PTR [rsp+0x4],edx
  400ef7:	eb 0d                	jmp    400f06 <stage_5+0xc6>
  400ef9:	29 74 24 04          	sub    DWORD PTR [rsp+0x4],esi
  400efd:	eb 07                	jmp    400f06 <stage_5+0xc6>
  400eff:	0f be d2             	movsx  edx,dl
  400f02:	29 54 24 04          	sub    DWORD PTR [rsp+0x4],edx
  400f06:	48 83 c0 01          	add    rax,0x1
  400f0a:	48 39 f8             	cmp    rax,rdi
  400f0d:	75 9f                	jne    400eae <stage_5+0x6e>
  400f0f:	83 7c 24 04 00       	cmp    DWORD PTR [rsp+0x4],0x0
  400f14:	0f 94 c2             	sete   dl
  400f17:	89 d0                	mov    eax,edx
  400f19:	48 8b 74 24 08       	mov    rsi,QWORD PTR [rsp+0x8]
  400f1e:	64 48 33 34 25 28 00 	xor    rsi,QWORD PTR fs:0x28
  400f25:	00 00 
  400f27:	74 05                	je     400f2e <stage_5+0xee>
  400f29:	e8 b2 f8 ff ff       	call   4007e0 <__stack_chk_fail@plt>
  400f2e:	48 83 c4 18          	add    rsp,0x18
  400f32:	c3                   	ret    

0000000000400f33 <stage_6>:
  400f33:	55                   	push   rbp
  400f34:	53                   	push   rbx
  400f35:	48 83 ec 28          	sub    rsp,0x28
  400f39:	64 48 8b 04 25 28 00 	mov    rax,QWORD PTR fs:0x28
  400f40:	00 00 
  400f42:	48 89 44 24 18       	mov    QWORD PTR [rsp+0x18],rax
  400f47:	31 c0                	xor    eax,eax
  400f49:	4c 8d 44 24 14       	lea    r8,[rsp+0x14]
  400f4e:	48 8d 4c 24 0f       	lea    rcx,[rsp+0xf]
  400f53:	48 8d 54 24 10       	lea    rdx,[rsp+0x10]
  400f58:	be 9f 14 40 00       	mov    esi,0x40149f
  400f5d:	e8 fe f8 ff ff       	call   400860 <__isoc99_sscanf@plt>
  400f62:	ba 00 00 00 00       	mov    edx,0x0
  400f67:	83 f8 03             	cmp    eax,0x3
  400f6a:	75 1f                	jne    400f8b <stage_6+0x58>
  400f6c:	8b 6c 24 14          	mov    ebp,DWORD PTR [rsp+0x14]
  400f70:	8b 5c 24 10          	mov    ebx,DWORD PTR [rsp+0x10]
  400f74:	89 ee                	mov    esi,ebp
  400f76:	89 df                	mov    edi,ebx
  400f78:	e8 7b fc ff ff       	call   400bf8 <___>
  400f7d:	0f be 54 24 0f       	movsx  edx,BYTE PTR [rsp+0xf]
  400f82:	21 d0                	and    eax,edx
  400f84:	01 eb                	add    ebx,ebp
  400f86:	39 d8                	cmp    eax,ebx
  400f88:	0f 94 c2             	sete   dl
  400f8b:	89 d0                	mov    eax,edx
  400f8d:	48 8b 5c 24 18       	mov    rbx,QWORD PTR [rsp+0x18]
  400f92:	64 48 33 1c 25 28 00 	xor    rbx,QWORD PTR fs:0x28
  400f99:	00 00 
  400f9b:	74 05                	je     400fa2 <stage_6+0x6f>
  400f9d:	e8 3e f8 ff ff       	call   4007e0 <__stack_chk_fail@plt>
  400fa2:	48 83 c4 28          	add    rsp,0x28
  400fa6:	5b                   	pop    rbx
  400fa7:	5d                   	pop    rbp
  400fa8:	c3                   	ret    

0000000000400fa9 <stage_7>:
  400fa9:	48 8b 15 c8 05 00 00 	mov    rdx,QWORD PTR [rip+0x5c8]        # 401578 <head>
  400fb0:	48 85 d2             	test   rdx,rdx
  400fb3:	74 3b                	je     400ff0 <stage_7+0x47>
  400fb5:	0f b6 07             	movzx  eax,BYTE PTR [rdi]
  400fb8:	84 c0                	test   al,al
  400fba:	74 3b                	je     400ff7 <stage_7+0x4e>
  400fbc:	48 8b 35 2d 11 20 00 	mov    rsi,QWORD PTR [rip+0x20112d]        # 6020f0 <stderr@@GLIBC_2.2.5+0x10>
  400fc3:	32 06                	xor    al,BYTE PTR [rsi]
  400fc5:	3a 42 08             	cmp    al,BYTE PTR [rdx+0x8]
  400fc8:	75 3d                	jne    401007 <stage_7+0x5e>
  400fca:	b9 01 00 00 00       	mov    ecx,0x1
  400fcf:	eb 0d                	jmp    400fde <stage_7+0x35>
  400fd1:	48 83 c1 01          	add    rcx,0x1
  400fd5:	32 44 0e ff          	xor    al,BYTE PTR [rsi+rcx*1-0x1]
  400fd9:	3a 42 08             	cmp    al,BYTE PTR [rdx+0x8]
  400fdc:	75 2f                	jne    40100d <stage_7+0x64>
  400fde:	48 8b 12             	mov    rdx,QWORD PTR [rdx]
  400fe1:	48 85 d2             	test   rdx,rdx
  400fe4:	74 16                	je     400ffc <stage_7+0x53>
  400fe6:	0f b6 04 0f          	movzx  eax,BYTE PTR [rdi+rcx*1]
  400fea:	84 c0                	test   al,al
  400fec:	75 e3                	jne    400fd1 <stage_7+0x28>
  400fee:	eb 0c                	jmp    400ffc <stage_7+0x53>
  400ff0:	b9 00 00 00 00       	mov    ecx,0x0
  400ff5:	eb 05                	jmp    400ffc <stage_7+0x53>
  400ff7:	b9 00 00 00 00       	mov    ecx,0x0
  400ffc:	48 39 0d e5 10 20 00 	cmp    QWORD PTR [rip+0x2010e5],rcx        # 6020e8 <stderr@@GLIBC_2.2.5+0x8>
  401003:	0f 94 c0             	sete   al
  401006:	c3                   	ret    
  401007:	b8 00 00 00 00       	mov    eax,0x0
  40100c:	c3                   	ret    
  40100d:	b8 00 00 00 00       	mov    eax,0x0
  401012:	c3                   	ret    

0000000000401013 <_start>:
  401013:	55                   	push   rbp
  401014:	53                   	push   rbx
  401015:	48 83 ec 08          	sub    rsp,0x8
  401019:	89 fb                	mov    ebx,edi
  40101b:	48 89 f5             	mov    rbp,rsi
  40101e:	b9 00 00 00 00       	mov    ecx,0x0
  401023:	ba 00 00 00 00       	mov    edx,0x0
  401028:	be 00 00 00 00       	mov    esi,0x0
  40102d:	bf 00 00 00 00       	mov    edi,0x0
  401032:	b8 00 00 00 00       	mov    eax,0x0
  401037:	e8 34 f8 ff ff       	call   400870 <ptrace@plt>
  40103c:	48 83 f8 ff          	cmp    rax,0xffffffffffffffff
  401040:	75 3d                	jne    40107f <_start+0x6c>
  401042:	ba 00 00 00 00       	mov    edx,0x0
  401047:	0f b6 82 a0 20 60 00 	movzx  eax,BYTE PTR [rdx+0x6020a0]
  40104e:	83 f0 41             	xor    eax,0x41
  401051:	88 82 a0 20 60 00    	mov    BYTE PTR [rdx+0x6020a0],al
  401057:	48 83 c2 01          	add    rdx,0x1
  40105b:	84 c0                	test   al,al
  40105d:	75 e8                	jne    401047 <_start+0x34>
  40105f:	ba a0 20 60 00       	mov    edx,0x6020a0
  401064:	be 01 00 00 00       	mov    esi,0x1
  401069:	48 8b 3d 70 10 20 00 	mov    rdi,QWORD PTR [rip+0x201070]        # 6020e0 <stderr@@GLIBC_2.2.5>
  401070:	e8 3b f8 ff ff       	call   4008b0 <__fprintf_chk@plt>
  401075:	bf 8b 00 00 00       	mov    edi,0x8b
  40107a:	e8 51 f7 ff ff       	call   4007d0 <_exit@plt>
  40107f:	48 89 ee             	mov    rsi,rbp
  401082:	89 df                	mov    edi,ebx
  401084:	b8 00 00 00 00       	mov    eax,0x0
  401089:	e8 ca fa ff ff       	call   400b58 <main>
  40108e:	89 c7                	mov    edi,eax
  401090:	e8 0b f8 ff ff       	call   4008a0 <exit@plt>

0000000000401095 <stage_super_duper_secret>:
  401095:	4e 69 63 65 20 74 72 	rex.WRX imul r12,QWORD PTR [rbx+0x65],0x79727420
  40109c:	79 
  40109d:	2c 20                	sub    al,0x20
  40109f:	62                   	(bad)  
  4010a0:	75 74                	jne    401116 <stage_secret+0x57>
  4010a2:	20 73 75             	and    BYTE PTR [rbx+0x75],dh
  4010a5:	63 68 20             	movsxd ebp,DWORD PTR [rax+0x20]
  4010a8:	61                   	(bad)  
  4010a9:	20 73 74             	and    BYTE PTR [rbx+0x74],dh
  4010ac:	61                   	(bad)  
  4010ad:	67 65 20 64 6f 65    	and    BYTE PTR gs:[edi+ebp*2+0x65],ah
  4010b3:	73 20                	jae    4010d5 <stage_secret+0x16>
  4010b5:	6e                   	outs   dx,BYTE PTR ds:[rsi]
  4010b6:	6f                   	outs   dx,DWORD PTR ds:[rsi]
  4010b7:	74 20                	je     4010d9 <stage_secret+0x1a>
  4010b9:	65 78 69             	gs js  401125 <stage_secret+0x66>
  4010bc:	73 74                	jae    401132 <stage_secret+0x73>
  4010be:	2e 41 55             	cs push r13

00000000004010bf <stage_secret>:
  4010bf:	41 55                	push   r13
  4010c1:	41 54                	push   r12
  4010c3:	55                   	push   rbp
  4010c4:	53                   	push   rbx
  4010c5:	48 83 ec 18          	sub    rsp,0x18
  4010c9:	49 89 fc             	mov    r12,rdi
  4010cc:	be 00 04 00 00       	mov    esi,0x400
  4010d1:	bf 00 10 00 00       	mov    edi,0x1000
  4010d6:	e8 65 f7 ff ff       	call   400840 <memalign@plt>
  4010db:	48 89 c5             	mov    rbp,rax
  4010de:	b8 00 00 00 00       	mov    eax,0x0
  4010e3:	48 85 ed             	test   rbp,rbp
  4010e6:	0f 84 ad 01 00 00    	je     401299 <stage_secret+0x1da>
  4010ec:	ba 06 00 00 00       	mov    edx,0x6
  4010f1:	be 00 10 00 00       	mov    esi,0x1000
  4010f6:	48 89 ef             	mov    rdi,rbp
  4010f9:	e8 92 f7 ff ff       	call   400890 <mprotect@plt>
  4010fe:	85 c0                	test   eax,eax
  401100:	79 12                	jns    401114 <stage_secret+0x55>
  401102:	48 89 ef             	mov    rdi,rbp
  401105:	e8 b6 f6 ff ff       	call   4007c0 <free@plt>
  40110a:	b8 00 00 00 00       	mov    eax,0x0
  40110f:	e9 85 01 00 00       	jmp    401299 <stage_secret+0x1da>
  401114:	49 8b 04 24          	mov    rax,QWORD PTR [r12]
  401118:	48 89 45 00          	mov    QWORD PTR [rbp+0x0],rax
  40111c:	49 8b 44 24 08       	mov    rax,QWORD PTR [r12+0x8]
  401121:	48 89 45 08          	mov    QWORD PTR [rbp+0x8],rax
  401125:	49 8b 44 24 10       	mov    rax,QWORD PTR [r12+0x10]
  40112a:	48 89 45 10          	mov    QWORD PTR [rbp+0x10],rax
  40112e:	49 8b 44 24 18       	mov    rax,QWORD PTR [r12+0x18]
  401133:	48 89 45 18          	mov    QWORD PTR [rbp+0x18],rax
  401137:	49 8b 44 24 20       	mov    rax,QWORD PTR [r12+0x20]
  40113c:	48 89 45 20          	mov    QWORD PTR [rbp+0x20],rax
  401140:	49 8b 44 24 28       	mov    rax,QWORD PTR [r12+0x28]
  401145:	48 89 45 28          	mov    QWORD PTR [rbp+0x28],rax
  401149:	49 8b 44 24 30       	mov    rax,QWORD PTR [r12+0x30]
  40114e:	48 89 45 30          	mov    QWORD PTR [rbp+0x30],rax
  401152:	49 8b 44 24 38       	mov    rax,QWORD PTR [r12+0x38]
  401157:	48 89 45 38          	mov    QWORD PTR [rbp+0x38],rax
  40115b:	49 8b 44 24 40       	mov    rax,QWORD PTR [r12+0x40]
  401160:	48 89 45 40          	mov    QWORD PTR [rbp+0x40],rax
  401164:	49 8b 44 24 48       	mov    rax,QWORD PTR [r12+0x48]
  401169:	48 89 45 48          	mov    QWORD PTR [rbp+0x48],rax
  40116d:	49 8b 44 24 50       	mov    rax,QWORD PTR [r12+0x50]
  401172:	48 89 45 50          	mov    QWORD PTR [rbp+0x50],rax
  401176:	49 8b 44 24 58       	mov    rax,QWORD PTR [r12+0x58]
  40117b:	48 89 45 58          	mov    QWORD PTR [rbp+0x58],rax
  40117f:	49 8b 44 24 60       	mov    rax,QWORD PTR [r12+0x60]
  401184:	48 89 45 60          	mov    QWORD PTR [rbp+0x60],rax
  401188:	49 8b 44 24 68       	mov    rax,QWORD PTR [r12+0x68]
  40118d:	48 89 45 68          	mov    QWORD PTR [rbp+0x68],rax
  401191:	49 8b 44 24 70       	mov    rax,QWORD PTR [r12+0x70]
  401196:	48 89 45 70          	mov    QWORD PTR [rbp+0x70],rax
  40119a:	49 8b 44 24 78       	mov    rax,QWORD PTR [r12+0x78]
  40119f:	48 89 45 78          	mov    QWORD PTR [rbp+0x78],rax
  4011a3:	49 89 ed             	mov    r13,rbp
  4011a6:	48 8b 05 3b 0f 20 00 	mov    rax,QWORD PTR [rip+0x200f3b]        # 6020e8 <stderr@@GLIBC_2.2.5+0x8>
  4011ad:	48 85 c0             	test   rax,rax
  4011b0:	74 5b                	je     40120d <stage_secret+0x14e>
  4011b2:	bb 00 00 00 00       	mov    ebx,0x0
  4011b7:	66 0f ef db          	pxor   xmm3,xmm3
  4011bb:	f2 0f 11 5c 24 08    	movsd  QWORD PTR [rsp+0x8],xmm3
  4011c1:	48 8b 05 28 0f 20 00 	mov    rax,QWORD PTR [rip+0x200f28]        # 6020f0 <stderr@@GLIBC_2.2.5+0x10>
  4011c8:	0f be 3c 18          	movsx  edi,BYTE PTR [rax+rbx*1]
  4011cc:	41 ff d5             	call   r13
  4011cf:	f2 0f 10 0d 49 04 00 	movsd  xmm1,QWORD PTR [rip+0x449]        # 401620 <head+0xa8>
  4011d6:	00 
  4011d7:	66 0f 2e c8          	ucomisd xmm1,xmm0
  4011db:	76 12                	jbe    4011ef <stage_secret+0x130>
  4011dd:	48 89 ef             	mov    rdi,rbp
  4011e0:	e8 db f5 ff ff       	call   4007c0 <free@plt>
  4011e5:	b8 00 00 00 00       	mov    eax,0x0
  4011ea:	e9 aa 00 00 00       	jmp    401299 <stage_secret+0x1da>
  4011ef:	f2 0f 58 44 24 08    	addsd  xmm0,QWORD PTR [rsp+0x8]
  4011f5:	f2 0f 11 44 24 08    	movsd  QWORD PTR [rsp+0x8],xmm0
  4011fb:	48 83 c3 01          	add    rbx,0x1
  4011ff:	48 8b 05 e2 0e 20 00 	mov    rax,QWORD PTR [rip+0x200ee2]        # 6020e8 <stderr@@GLIBC_2.2.5+0x8>
  401206:	48 39 d8             	cmp    rax,rbx
  401209:	77 b6                	ja     4011c1 <stage_secret+0x102>
  40120b:	eb 0a                	jmp    401217 <stage_secret+0x158>
  40120d:	66 0f ef ed          	pxor   xmm5,xmm5
  401211:	f2 0f 11 6c 24 08    	movsd  QWORD PTR [rsp+0x8],xmm5
  401217:	48 85 c0             	test   rax,rax
  40121a:	78 0b                	js     401227 <stage_secret+0x168>
  40121c:	66 0f ef c0          	pxor   xmm0,xmm0
  401220:	f2 48 0f 2a c0       	cvtsi2sd xmm0,rax
  401225:	eb 19                	jmp    401240 <stage_secret+0x181>
  401227:	48 89 c2             	mov    rdx,rax
  40122a:	48 d1 ea             	shr    rdx,1
  40122d:	83 e0 01             	and    eax,0x1
  401230:	48 09 c2             	or     rdx,rax
  401233:	66 0f ef c0          	pxor   xmm0,xmm0
  401237:	f2 48 0f 2a c2       	cvtsi2sd xmm0,rdx
  40123c:	f2 0f 58 c0          	addsd  xmm0,xmm0
  401240:	f2 0f 10 64 24 08    	movsd  xmm4,QWORD PTR [rsp+0x8]
  401246:	f2 0f 5e e0          	divsd  xmm4,xmm0
  40124a:	f2 0f 11 64 24 08    	movsd  QWORD PTR [rsp+0x8],xmm4
  401250:	48 89 ef             	mov    rdi,rbp
  401253:	e8 68 f5 ff ff       	call   4007c0 <free@plt>
  401258:	41 0f be 0c 24       	movsx  ecx,BYTE PTR [r12]
  40125d:	41 0f be 44 24 01    	movsx  eax,BYTE PTR [r12+0x1]
  401263:	8d 14 01             	lea    edx,[rcx+rax*1]
  401266:	66 0f ef c0          	pxor   xmm0,xmm0
  40126a:	f2 0f 2a c2          	cvtsi2sd xmm0,edx
  40126e:	f2 0f 10 64 24 08    	movsd  xmm4,QWORD PTR [rsp+0x8]
  401274:	66 0f 2e e0          	ucomisd xmm4,xmm0
  401278:	76 17                	jbe    401291 <stage_secret+0x1d2>
  40127a:	0f af c1             	imul   eax,ecx
  40127d:	66 0f ef c0          	pxor   xmm0,xmm0
  401281:	f2 0f 2a c0          	cvtsi2sd xmm0,eax
  401285:	66 0f 2e c4          	ucomisd xmm0,xmm4
  401289:	0f 97 c0             	seta   al
  40128c:	0f b6 c0             	movzx  eax,al
  40128f:	eb 05                	jmp    401296 <stage_secret+0x1d7>
  401291:	b8 00 00 00 00       	mov    eax,0x0
  401296:	83 e0 01             	and    eax,0x1
  401299:	48 83 c4 18          	add    rsp,0x18
  40129d:	5b                   	pop    rbx
  40129e:	5d                   	pop    rbp
  40129f:	41 5c                	pop    r12
  4012a1:	41 5d                	pop    r13
  4012a3:	c3                   	ret    

00000000004012a4 <stage_8>:
  4012a4:	55                   	push   rbp
  4012a5:	53                   	push   rbx
  4012a6:	48 83 ec 08          	sub    rsp,0x8
  4012aa:	bf 00 01 00 00       	mov    edi,0x100
  4012af:	e8 9c f5 ff ff       	call   400850 <malloc@plt>
  4012b4:	bd 00 00 00 00       	mov    ebp,0x0
  4012b9:	48 85 c0             	test   rax,rax
  4012bc:	0f 84 d6 00 00 00    	je     401398 <stage_8+0xf4>
  4012c2:	48 89 c3             	mov    rbx,rax
  4012c5:	ba 00 00 04 00       	mov    edx,0x40000
  4012ca:	be 9f 14 40 00       	mov    esi,0x40149f
  4012cf:	bf 02 00 00 00       	mov    edi,0x2
  4012d4:	b8 00 00 00 00       	mov    eax,0x0
  4012d9:	e8 52 f5 ff ff       	call   400830 <syscall@plt>
  4012de:	48 89 c5             	mov    rbp,rax
  4012e1:	48 85 c0             	test   rax,rax
  4012e4:	79 12                	jns    4012f8 <stage_8+0x54>
  4012e6:	48 89 df             	mov    rdi,rbx
  4012e9:	e8 d2 f4 ff ff       	call   4007c0 <free@plt>
  4012ee:	bd 00 00 00 00       	mov    ebp,0x0
  4012f3:	e9 a0 00 00 00       	jmp    401398 <stage_8+0xf4>
  4012f8:	b9 80 00 00 00       	mov    ecx,0x80
  4012fd:	48 89 da             	mov    rdx,rbx
  401300:	48 89 c6             	mov    rsi,rax
  401303:	bf 00 00 00 00       	mov    edi,0x0
  401308:	b8 00 00 00 00       	mov    eax,0x0
  40130d:	e8 1e f5 ff ff       	call   400830 <syscall@plt>
  401312:	48 83 f8 3f          	cmp    rax,0x3f
  401316:	7f 0f                	jg     401327 <stage_8+0x83>
  401318:	48 89 df             	mov    rdi,rbx
  40131b:	e8 a0 f4 ff ff       	call   4007c0 <free@plt>
  401320:	bd 00 00 00 00       	mov    ebp,0x0
  401325:	eb 71                	jmp    401398 <stage_8+0xf4>
  401327:	48 89 ee             	mov    rsi,rbp
  40132a:	bf 03 00 00 00       	mov    edi,0x3
  40132f:	b8 00 00 00 00       	mov    eax,0x0
  401334:	e8 f7 f4 ff ff       	call   400830 <syscall@plt>
  401339:	48 85 c0             	test   rax,rax
  40133c:	78 1f                	js     40135d <stage_8+0xb9>
  40133e:	0f b6 05 73 0d 20 00 	movzx  eax,BYTE PTR [rip+0x200d73]        # 6020b8 <hidden_phrase>
  401345:	3c 41                	cmp    al,0x41
  401347:	74 3e                	je     401387 <stage_8+0xe3>
  401349:	89 c6                	mov    esi,eax
  40134b:	83 f6 41             	xor    esi,0x41
  40134e:	48 89 da             	mov    rdx,rbx
  401351:	b9 b8 20 60 00       	mov    ecx,0x6020b8
  401356:	40 38 33             	cmp    BYTE PTR [rbx],sil
  401359:	74 11                	je     40136c <stage_8+0xc8>
  40135b:	eb 2d                	jmp    40138a <stage_8+0xe6>
  40135d:	48 89 df             	mov    rdi,rbx
  401360:	e8 5b f4 ff ff       	call   4007c0 <free@plt>
  401365:	bd 00 00 00 00       	mov    ebp,0x0
  40136a:	eb 2c                	jmp    401398 <stage_8+0xf4>
  40136c:	48 83 c2 01          	add    rdx,0x1
  401370:	48 83 c1 01          	add    rcx,0x1
  401374:	0f b6 01             	movzx  eax,BYTE PTR [rcx]
  401377:	3c 41                	cmp    al,0x41
  401379:	74 0f                	je     40138a <stage_8+0xe6>
  40137b:	89 c6                	mov    esi,eax
  40137d:	83 f6 41             	xor    esi,0x41
  401380:	40 38 32             	cmp    BYTE PTR [rdx],sil
  401383:	74 e7                	je     40136c <stage_8+0xc8>
  401385:	eb 03                	jmp    40138a <stage_8+0xe6>
  401387:	48 89 da             	mov    rdx,rbx
  40138a:	0a 02                	or     al,BYTE PTR [rdx]
  40138c:	40 0f 94 c5          	sete   bpl
  401390:	48 89 df             	mov    rdi,rbx
  401393:	e8 28 f4 ff ff       	call   4007c0 <free@plt>
  401398:	89 e8                	mov    eax,ebp
  40139a:	48 83 c4 08          	add    rsp,0x8
  40139e:	5b                   	pop    rbx
  40139f:	5d                   	pop    rbp
  4013a0:	c3                   	ret    
